; Function Attrs: nounwind uwtable
define void @poll_default_cb(ptr noundef readonly captures(none) %0) #0 {
  %2 = alloca i32, align 4
  store i32 0, ptr %2, align 4
  %3 = getelementptr inbounds nuw i8, ptr %0, i64 16
  %4 = load ptr, ptr %3, align 8
  %.not = icmp eq ptr %4, null
  br i1 %.not, label %11, label %5

5:                                                ; preds = %1
  %6 = call i32 @nxsem_get_value(ptr noundef nonnull %4, ptr noundef nonnull %2) #4
  %7 = load i32, ptr %2, align 4
  %8 = icmp slt i32 %7, 1
  br i1 %8, label %9, label %11

9:                                                ; preds = %5
  %10 = call i32 @nxsem_post(ptr noundef nonnull %4) #4
  br label %11

11:                                               ; preds = %5, %9, %1
  ret void
}